target datalayout = "e-m:e-p270:32:32-p271:32:32-p272:64:64-i64:64-i128:128-f80:128-n8:16:32:64-S128"
target triple = "x86_64-pc-linux-gnu"

%struct.nghttp2_frame_hd = type { i64, i32, i8, i8, i8 }
%struct.nghttp2_priority_spec = type { i32, i32, i8 }
%struct.nghttp2_priority = type { %struct.nghttp2_frame_hd, %struct.nghttp2_priority_spec }
%struct.nghttp2_bufs = type { ptr, ptr, ptr, i64, i64, i64, i64, i64 }
%struct.nghttp2_buf_chain = type { ptr, %struct.nghttp2_buf }
%struct.nghttp2_buf = type { ptr, ptr, ptr, ptr, ptr }

@.str = private unnamed_addr constant [24 x i8] c"bufs->head == bufs->cur\00", align 1
@.str.1 = private unnamed_addr constant [113 x i8] c"generated/home/dtcxzyw/WorkSpace/Projects/compilers/llvm-opt-benchmark/bench/nghttp2/nghttp2/lib/nghttp2_frame.c\00", align 1
@__PRETTY_FUNCTION__.nghttp2_frame_pack_priority = private unnamed_addr constant [69 x i8] c"void nghttp2_frame_pack_priority(nghttp2_bufs *, nghttp2_priority *)\00", align 1
@.str.2 = private unnamed_addr constant [51 x i8] c"nghttp2_buf_avail(buf) >= NGHTTP2_PRIORITY_SPECLEN\00", align 1

; Function Attrs: nounwind uwtable
define hidden void @nghttp2_frame_pack_priority_spec(ptr noundef %0, ptr noundef %1) #0 {
  %3 = alloca ptr, align 8
  %4 = alloca ptr, align 8
  store ptr %0, ptr %3, align 8, !tbaa !3
  store ptr %1, ptr %4, align 8, !tbaa !8
  %5 = load ptr, ptr %3, align 8, !tbaa !3
  %6 = load ptr, ptr %4, align 8, !tbaa !8
  %7 = getelementptr inbounds nuw %struct.nghttp2_priority_spec, ptr %6, i32 0, i32 0
  %8 = load i32, ptr %7, align 4, !tbaa !78
  call void @nghttp2_put_uint32be(ptr noundef %5, i32 noundef %8)
  %9 = load ptr, ptr %4, align 8, !tbaa !8
  %10 = getelementptr inbounds nuw %struct.nghttp2_priority_spec, ptr %9, i32 0, i32 2
  %11 = load i8, ptr %10, align 4, !tbaa !79
  %12 = icmp ne i8 %11, 0
  br i1 %12, label %13, label %20

13:                                               ; preds = %2
  %14 = load ptr, ptr %3, align 8, !tbaa !3
  %15 = getelementptr inbounds i8, ptr %14, i64 0
  %16 = load i8, ptr %15, align 1, !tbaa !14
  %17 = zext i8 %16 to i32
  %18 = or i32 %17, 128
  %19 = trunc i32 %18 to i8
  store i8 %19, ptr %15, align 1, !tbaa !14
  br label %20

20:                                               ; preds = %13, %2
  %21 = load ptr, ptr %4, align 8, !tbaa !8
  %22 = getelementptr inbounds nuw %struct.nghttp2_priority_spec, ptr %21, i32 0, i32 1
  %23 = load i32, ptr %22, align 4, !tbaa !80
  %24 = sub nsw i32 %23, 1
  %25 = trunc i32 %24 to i8
  %26 = load ptr, ptr %3, align 8, !tbaa !3
  %27 = getelementptr inbounds i8, ptr %26, i64 4
  store i8 %25, ptr %27, align 1, !tbaa !14
  ret void
}

; Function Attrs: nounwind uwtable
define hidden void @nghttp2_frame_pack_frame_hd(ptr noundef %0, ptr noundef %1) #0 {
  %3 = alloca ptr, align 8
  %4 = alloca ptr, align 8
  store ptr %0, ptr %3, align 8, !tbaa !3
  store ptr %1, ptr %4, align 8, !tbaa !8
  %5 = load ptr, ptr %3, align 8, !tbaa !3
  %6 = getelementptr inbounds i8, ptr %5, i64 0
  %7 = load ptr, ptr %4, align 8, !tbaa !8
  %8 = getelementptr inbounds nuw %struct.nghttp2_frame_hd, ptr %7, i32 0, i32 0
  %9 = load i64, ptr %8, align 8, !tbaa !9
  %10 = shl i64 %9, 8
  %11 = trunc i64 %10 to i32
  call void @nghttp2_put_uint32be(ptr noundef %6, i32 noundef %11)
  %12 = load ptr, ptr %4, align 8, !tbaa !8
  %13 = getelementptr inbounds nuw %struct.nghttp2_frame_hd, ptr %12, i32 0, i32 2
  %14 = load i8, ptr %13, align 4, !tbaa !13
  %15 = load ptr, ptr %3, align 8, !tbaa !3
  %16 = getelementptr inbounds i8, ptr %15, i64 3
  store i8 %14, ptr %16, align 1, !tbaa !14
  %17 = load ptr, ptr %4, align 8, !tbaa !8
  %18 = getelementptr inbounds nuw %struct.nghttp2_frame_hd, ptr %17, i32 0, i32 3
  %19 = load i8, ptr %18, align 1, !tbaa !15
  %20 = load ptr, ptr %3, align 8, !tbaa !3
  %21 = getelementptr inbounds i8, ptr %20, i64 4
  store i8 %19, ptr %21, align 1, !tbaa !14
  %22 = load ptr, ptr %3, align 8, !tbaa !3
  %23 = getelementptr inbounds i8, ptr %22, i64 5
  %24 = load ptr, ptr %4, align 8, !tbaa !8
  %25 = getelementptr inbounds nuw %struct.nghttp2_frame_hd, ptr %24, i32 0, i32 1
  %26 = load i32, ptr %25, align 8, !tbaa !16
  call void @nghttp2_put_uint32be(ptr noundef %23, i32 noundef %26)
  ret void
}

; Function Attrs: nounwind uwtable
define hidden void @nghttp2_frame_pack_priority(ptr noundef %0, ptr noundef %1) #0 {
  %3 = alloca ptr, align 8
  %4 = alloca ptr, align 8
  %5 = alloca ptr, align 8
  store ptr %0, ptr %3, align 8, !tbaa !8
  store ptr %1, ptr %4, align 8, !tbaa !8
  call void @llvm.lifetime.start.p0(i64 8, ptr %5) #7
  %6 = load ptr, ptr %3, align 8, !tbaa !8
  %7 = getelementptr inbounds nuw %struct.nghttp2_bufs, ptr %6, i32 0, i32 0
  %8 = load ptr, ptr %7, align 8, !tbaa !70
  %9 = load ptr, ptr %3, align 8, !tbaa !8
  %10 = getelementptr inbounds nuw %struct.nghttp2_bufs, ptr %9, i32 0, i32 1
  %11 = load ptr, ptr %10, align 8, !tbaa !73
  %12 = icmp eq ptr %8, %11
  br i1 %12, label %13, label %14

13:                                               ; preds = %2
  br label %15

14:                                               ; preds = %2
  call void @__assert_fail(ptr noundef @.str, ptr noundef @.str.1, i32 noundef 436, ptr noundef @__PRETTY_FUNCTION__.nghttp2_frame_pack_priority) #8
  unreachable

15:                                               ; preds = %13
  %16 = load ptr, ptr %3, align 8, !tbaa !8
  %17 = getelementptr inbounds nuw %struct.nghttp2_bufs, ptr %16, i32 0, i32 0
  %18 = load ptr, ptr %17, align 8, !tbaa !70
  %19 = getelementptr inbounds nuw %struct.nghttp2_buf_chain, ptr %18, i32 0, i32 1
  store ptr %19, ptr %5, align 8, !tbaa !8
  %20 = load ptr, ptr %5, align 8, !tbaa !8
  %21 = getelementptr inbounds nuw %struct.nghttp2_buf, ptr %20, i32 0, i32 1
  %22 = load ptr, ptr %21, align 8, !tbaa !86
  %23 = load ptr, ptr %5, align 8, !tbaa !8
  %24 = getelementptr inbounds nuw %struct.nghttp2_buf, ptr %23, i32 0, i32 3
  %25 = load ptr, ptr %24, align 8, !tbaa !76
  %26 = ptrtoint ptr %22 to i64
  %27 = ptrtoint ptr %25 to i64
  %28 = sub i64 %26, %27
  %29 = icmp uge i64 %28, 5
  br i1 %29, label %30, label %31

30:                                               ; preds = %15
  br label %32

31:                                               ; preds = %15
  call void @__assert_fail(ptr noundef @.str.2, ptr noundef @.str.1, i32 noundef 440, ptr noundef @__PRETTY_FUNCTION__.nghttp2_frame_pack_priority) #8
  unreachable

32:                                               ; preds = %30
  %33 = load ptr, ptr %5, align 8, !tbaa !8
  %34 = getelementptr inbounds nuw %struct.nghttp2_buf, ptr %33, i32 0, i32 2
  %35 = load ptr, ptr %34, align 8, !tbaa !74
  %36 = getelementptr inbounds i8, ptr %35, i64 -9
  store ptr %36, ptr %34, align 8, !tbaa !74
  %37 = load ptr, ptr %5, align 8, !tbaa !8
  %38 = getelementptr inbounds nuw %struct.nghttp2_buf, ptr %37, i32 0, i32 2
  %39 = load ptr, ptr %38, align 8, !tbaa !74
  %40 = load ptr, ptr %4, align 8, !tbaa !8
  %41 = getelementptr inbounds nuw %struct.nghttp2_priority, ptr %40, i32 0, i32 0
  call void @nghttp2_frame_pack_frame_hd(ptr noundef %39, ptr noundef %41)
  %42 = load ptr, ptr %5, align 8, !tbaa !8
  %43 = getelementptr inbounds nuw %struct.nghttp2_buf, ptr %42, i32 0, i32 3
  %44 = load ptr, ptr %43, align 8, !tbaa !76
  %45 = load ptr, ptr %4, align 8, !tbaa !8
  %46 = getelementptr inbounds nuw %struct.nghttp2_priority, ptr %45, i32 0, i32 1
  call void @nghttp2_frame_pack_priority_spec(ptr noundef %44, ptr noundef %46)
  %47 = load ptr, ptr %5, align 8, !tbaa !8
  %48 = getelementptr inbounds nuw %struct.nghttp2_buf, ptr %47, i32 0, i32 3
  %49 = load ptr, ptr %48, align 8, !tbaa !76
  %50 = getelementptr inbounds i8, ptr %49, i64 5
  store ptr %50, ptr %48, align 8, !tbaa !76
  call void @llvm.lifetime.end.p0(i64 8, ptr %5) #7
  ret void
}